target datalayout = "e-m:e-p270:32:32-p271:32:32-p272:64:64-i64:64-i128:128-f80:128-n8:16:32:64-S128"
target triple = "x86_64-pc-linux-gnu"

; Function Attrs: mustprogress nounwind uwtable
define hidden noundef zeroext i1 @_ZN10VectorNode35is_vector_integral_negate_supportedEij9BasicTypeb(i32 noundef %0, i32 noundef %1, i8 noundef zeroext %2, i1 noundef zeroext %3) #1 align 2 {
  %5 = alloca i1, align 1
  %6 = alloca i32, align 4
  %7 = alloca i32, align 4
  %8 = alloca i8, align 1
  %9 = alloca i8, align 1
  %10 = alloca i32, align 4
  %11 = alloca i32, align 4
  store i32 %0, ptr %6, align 4
  store i32 %1, ptr %7, align 4
  store i8 %2, ptr %8, align 1
  %12 = zext i1 %3 to i8
  store i8 %12, ptr %9, align 1
  %13 = load i8, ptr %9, align 1
  %14 = trunc i8 %13 to i1
  br i1 %14, label %38, label %15

15:                                               ; preds = %4
  %16 = load i32, ptr %6, align 4
  %17 = load i32, ptr %7, align 4
  %18 = load i8, ptr %8, align 1
  %19 = call noundef zeroext i1 @_ZN7Matcher27match_rule_supported_vectorEii9BasicType(i32 noundef %16, i32 noundef %17, i8 noundef zeroext %18)
  br i1 %19, label %20, label %21

20:                                               ; preds = %15
  store i1 true, ptr %5, align 1
  br label %66

21:                                               ; preds = %15
  %22 = load i8, ptr %8, align 1
  %23 = zext i8 %22 to i32
  %24 = icmp eq i32 %23, 11
  %25 = select i1 %24, i32 343, i32 342
  store i32 %25, ptr %10, align 4
  %26 = load i32, ptr %10, align 4
  %27 = load i8, ptr %8, align 1
  %28 = call noundef i32 @_ZN10VectorNode6opcodeEi9BasicType(i32 noundef %26, i8 noundef zeroext %27)
  %29 = load i32, ptr %7, align 4
  %30 = load i8, ptr %8, align 1
  %31 = call noundef zeroext i1 @_ZN7Matcher27match_rule_supported_vectorEii9BasicType(i32 noundef %28, i32 noundef %29, i8 noundef zeroext %30)
  br i1 %31, label %32, label %37

32:                                               ; preds = %21
  %33 = load i32, ptr %7, align 4
  %34 = load i8, ptr %8, align 1
  %35 = call noundef zeroext i1 @_ZN7Matcher27match_rule_supported_vectorEii9BasicType(i32 noundef 452, i32 noundef %33, i8 noundef zeroext %34)
  br i1 %35, label %36, label %37

36:                                               ; preds = %32
  store i1 true, ptr %5, align 1
  br label %66

37:                                               ; preds = %32, %21
  br label %65

38:                                               ; preds = %4
  %39 = load i32, ptr %6, align 4
  %40 = load i32, ptr %7, align 4
  %41 = load i8, ptr %8, align 1
  %42 = call noundef zeroext i1 @_ZN7Matcher34match_rule_supported_vector_maskedEii9BasicType(i32 noundef %39, i32 noundef %40, i8 noundef zeroext %41)
  br i1 %42, label %43, label %44

43:                                               ; preds = %38
  store i1 true, ptr %5, align 1
  br label %66

44:                                               ; preds = %38
  %45 = load i8, ptr %8, align 1
  %46 = zext i8 %45 to i32
  %47 = icmp eq i32 %46, 11
  %48 = select i1 %47, i32 24, i32 23
  store i32 %48, ptr %11, align 4
  %49 = load i32, ptr %7, align 4
  %50 = load i8, ptr %8, align 1
  %51 = call noundef zeroext i1 @_ZN7Matcher34match_rule_supported_vector_maskedEii9BasicType(i32 noundef 417, i32 noundef %49, i8 noundef zeroext %50)
  br i1 %51, label %52, label %64

52:                                               ; preds = %44
  %53 = load i32, ptr %11, align 4
  %54 = load i8, ptr %8, align 1
  %55 = call noundef i32 @_ZN10VectorNode6opcodeEi9BasicType(i32 noundef %53, i8 noundef zeroext %54)
  %56 = load i32, ptr %7, align 4
  %57 = load i8, ptr %8, align 1
  %58 = call noundef zeroext i1 @_ZN7Matcher34match_rule_supported_vector_maskedEii9BasicType(i32 noundef %55, i32 noundef %56, i8 noundef zeroext %57)
  br i1 %58, label %59, label %64

59:                                               ; preds = %52
  %60 = load i32, ptr %7, align 4
  %61 = load i8, ptr %8, align 1
  %62 = call noundef zeroext i1 @_ZN7Matcher27match_rule_supported_vectorEii9BasicType(i32 noundef 452, i32 noundef %60, i8 noundef zeroext %61)
  br i1 %62, label %63, label %64

63:                                               ; preds = %59
  store i1 true, ptr %5, align 1
  br label %66

64:                                               ; preds = %59, %52, %44
  br label %65

65:                                               ; preds = %64, %37
  store i1 false, ptr %5, align 1
  br label %66

66:                                               ; preds = %65, %63, %43, %36, %20
  %67 = load i1, ptr %5, align 1
  ret i1 %67
}

; Function Attrs: mustprogress nounwind uwtable
define hidden noundef zeroext i1 @_ZN10VectorNode25is_vector_integral_negateEi(i32 noundef %0) #1 align 2 {
  %2 = alloca i32, align 4
  store i32 %0, ptr %2, align 4
  %3 = load i32, ptr %2, align 4
  %4 = icmp eq i32 %3, 393
  br i1 %4, label %8, label %5

5:                                                ; preds = %1
  %6 = load i32, ptr %2, align 4
  %7 = icmp eq i32 %6, 394
  br label %8

8:                                                ; preds = %5, %1
  %9 = phi i1 [ true, %1 ], [ %7, %5 ]
  ret i1 %9
}

; Function Attrs: mustprogress nounwind uwtable
define hidden noundef zeroext i1 @_ZN10VectorNode16is_vector_rotateEi(i32 noundef %0) #1 align 2 {
  %2 = alloca i1, align 1
  %3 = alloca i32, align 4
  store i32 %0, ptr %3, align 4
  %4 = load i32, ptr %3, align 4
  switch i32 %4, label %6 [
    i32 297, label %5
    i32 299, label %5
  ]

5:                                                ; preds = %1, %1
  store i1 true, ptr %2, align 1
  br label %7

6:                                                ; preds = %1
  store i1 false, ptr %2, align 1
  br label %7

7:                                                ; preds = %6, %5
  %8 = load i1, ptr %2, align 1
  ret i1 %8
}

; Function Attrs: mustprogress nounwind uwtable
define hidden noundef zeroext i1 @_ZN10VectorNode40vector_size_supported_auto_vectorizationE9BasicTypei(i8 noundef zeroext %0, i32 noundef %1) #1 align 2 {
  %3 = alloca i8, align 1
  %4 = alloca i32, align 4
  store i8 %0, ptr %3, align 1
  store i32 %1, ptr %4, align 4
  %5 = load i8, ptr %3, align 1
  %6 = call noundef i32 @_ZN7Matcher34max_vector_size_auto_vectorizationE9BasicType(i8 noundef zeroext %5)
  %7 = load i32, ptr %4, align 4
  %8 = icmp sge i32 %6, %7
  br i1 %8, label %9, label %14

9:                                                ; preds = %2
  %10 = load i8, ptr %3, align 1
  %11 = call noundef i32 @_ZN7Matcher15min_vector_sizeE9BasicType(i8 noundef zeroext %10)
  %12 = load i32, ptr %4, align 4
  %13 = icmp sle i32 %11, %12
  br label %14

14:                                               ; preds = %9, %2
  %15 = phi i1 [ false, %2 ], [ %13, %9 ]
  ret i1 %15
}

; Function Attrs: mustprogress nounwind uwtable
define linkonce_odr hidden noundef zeroext i1 @_Z13is_power_of_2IjTnNSt9enable_ifIXcvbsr3std11is_integralIT_EE5valueEiE4typeELi0EEbS1_(i32 noundef %0) #1 comdat {
  %2 = alloca i32, align 4
  store i32 %0, ptr %2, align 4
  %3 = load i32, ptr %2, align 4
  %4 = icmp ugt i32 %3, 0
  br i1 %4, label %5, label %11

5:                                                ; preds = %1
  %6 = load i32, ptr %2, align 4
  %7 = load i32, ptr %2, align 4
  %8 = sub i32 %7, 1
  %9 = and i32 %6, %8
  %10 = icmp eq i32 %9, 0
  br label %11

11:                                               ; preds = %5, %1
  %12 = phi i1 [ false, %1 ], [ %10, %5 ]
  ret i1 %12
}

; Function Attrs: mustprogress nounwind uwtable
define linkonce_odr hidden noundef zeroext i1 @_Z17is_java_primitive9BasicType(i8 noundef zeroext %0) #1 comdat {
  %2 = alloca i8, align 1
  store i8 %0, ptr %2, align 1
  %3 = load i8, ptr %2, align 1
  %4 = zext i8 %3 to i32
  %5 = icmp sle i32 4, %4
  br i1 %5, label %6, label %10

6:                                                ; preds = %1
  %7 = load i8, ptr %2, align 1
  %8 = zext i8 %7 to i32
  %9 = icmp sle i32 %8, 11
  br label %10

10:                                               ; preds = %6, %1
  %11 = phi i1 [ false, %1 ], [ %9, %6 ]
  ret i1 %11
}

; Function Attrs: mustprogress nounwind uwtable
define hidden noundef zeroext i1 @_ZN10VectorNode11implementedEij9BasicType(i32 noundef %0, i32 noundef %1, i8 noundef zeroext %2) #1 align 2 {
  %4 = alloca i1, align 1
  %5 = alloca i32, align 4
  %6 = alloca i32, align 4
  %7 = alloca i8, align 1
  %8 = alloca i32, align 4
  store i32 %0, ptr %5, align 4
  store i32 %1, ptr %6, align 4
  store i8 %2, ptr %7, align 1
  %9 = load i8, ptr %7, align 1
  %10 = call noundef zeroext i1 @_Z17is_java_primitive9BasicType(i8 noundef zeroext %9)
  br i1 %10, label %11, label %50

11:                                               ; preds = %3
  %12 = load i32, ptr %6, align 4
  %13 = icmp ugt i32 %12, 1
  br i1 %13, label %14, label %50

14:                                               ; preds = %11
  %15 = load i32, ptr %6, align 4
  %16 = call noundef zeroext i1 @_Z13is_power_of_2IjTnNSt9enable_ifIXcvbsr3std11is_integralIT_EE5valueEiE4typeELi0EEbS1_(i32 noundef %15)
  br i1 %16, label %17, label %50

17:                                               ; preds = %14
  %18 = load i8, ptr %7, align 1
  %19 = load i32, ptr %6, align 4
  %20 = call noundef zeroext i1 @_ZN10VectorNode40vector_size_supported_auto_vectorizationE9BasicTypei(i8 noundef zeroext %18, i32 noundef %19)
  br i1 %20, label %21, label %50

21:                                               ; preds = %17
  %22 = load i32, ptr %5, align 4
  %23 = load i8, ptr %7, align 1
  %24 = call noundef i32 @_ZN10VectorNode6opcodeEi9BasicType(i32 noundef %22, i8 noundef zeroext %23)
  store i32 %24, ptr %8, align 4
  %25 = load i32, ptr %8, align 4
  %26 = call noundef zeroext i1 @_ZN10VectorNode16is_vector_rotateEi(i32 noundef %25)
  br i1 %26, label %27, label %32

27:                                               ; preds = %21
  %28 = load i32, ptr %8, align 4
  %29 = load i32, ptr %6, align 4
  %30 = load i8, ptr %7, align 1
  %31 = call noundef zeroext i1 @_ZN10VectorNode26is_vector_rotate_supportedEij9BasicType(i32 noundef %28, i32 noundef %29, i8 noundef zeroext %30)
  store i1 %31, ptr %4, align 1
  br label %51

32:                                               ; preds = %21
  %33 = load i32, ptr %8, align 4
  %34 = call noundef zeroext i1 @_ZN10VectorNode25is_vector_integral_negateEi(i32 noundef %33)
  br i1 %34, label %35, label %40

35:                                               ; preds = %32
  %36 = load i32, ptr %8, align 4
  %37 = load i32, ptr %6, align 4
  %38 = load i8, ptr %7, align 1
  %39 = call noundef zeroext i1 @_ZN10VectorNode35is_vector_integral_negate_supportedEij9BasicTypeb(i32 noundef %36, i32 noundef %37, i8 noundef zeroext %38, i1 noundef zeroext false)
  store i1 %39, ptr %4, align 1
  br label %51

40:                                               ; preds = %32
  %41 = load i32, ptr %8, align 4
  %42 = icmp sgt i32 %41, 0
  br i1 %42, label %43, label %48

43:                                               ; preds = %40
  %44 = load i32, ptr %8, align 4
  %45 = load i32, ptr %6, align 4
  %46 = load i8, ptr %7, align 1
  %47 = call noundef zeroext i1 @_ZN7Matcher39match_rule_supported_auto_vectorizationEii9BasicType(i32 noundef %44, i32 noundef %45, i8 noundef zeroext %46)
  br label %48

48:                                               ; preds = %43, %40
  %49 = phi i1 [ false, %40 ], [ %47, %43 ]
  store i1 %49, ptr %4, align 1
  br label %51

50:                                               ; preds = %17, %14, %11, %3
  store i1 false, ptr %4, align 1
  br label %51

51:                                               ; preds = %50, %48, %35, %27
  %52 = load i1, ptr %4, align 1
  ret i1 %52
}