; Function Attrs: mustprogress nounwind uwtable
define hidden noundef zeroext i1 @_ZN10VectorNode11implementedEij9BasicType(i32 noundef %0, i32 noundef %1, i8 noundef zeroext %2) local_unnamed_addr #1 align 2 {
  %4 = add i8 %2, -4
  %5 = icmp ult i8 %4, 8
  %6 = icmp ugt i32 %1, 1
  %or.cond = and i1 %6, %5
  %7 = tail call range(i32 0, 33) i32 @llvm.ctpop.i32(i32 %1)
  %8 = icmp ult i32 %7, 2
  %or.cond24 = select i1 %or.cond, i1 %8, i1 false
  br i1 %or.cond24, label %9, label %_ZN10VectorNode35is_vector_integral_negate_supportedEij9BasicTypeb.exit

9:                                                ; preds = %3
  %10 = tail call noundef i32 @_ZN7Matcher34max_vector_size_auto_vectorizationE9BasicType(i8 noundef zeroext %2) #8
  %.not.i22 = icmp slt i32 %10, %1
  br i1 %.not.i22, label %_ZN10VectorNode35is_vector_integral_negate_supportedEij9BasicTypeb.exit, label %_ZN10VectorNode40vector_size_supported_auto_vectorizationE9BasicTypei.exit

_ZN10VectorNode40vector_size_supported_auto_vectorizationE9BasicTypei.exit: ; preds = %9
  %11 = tail call noundef i32 @_ZN7Matcher15min_vector_sizeE9BasicType(i8 noundef zeroext %2) #8
  %.not = icmp sgt i32 %11, %1
  br i1 %.not, label %_ZN10VectorNode35is_vector_integral_negate_supportedEij9BasicTypeb.exit, label %12

12:                                               ; preds = %_ZN10VectorNode40vector_size_supported_auto_vectorizationE9BasicTypei.exit
  %13 = tail call noundef i32 @_ZN10VectorNode6opcodeEi9BasicType(i32 noundef %0, i8 noundef zeroext %2)
  %14 = add i32 %13, -297
  %switch.and.i = and i32 %14, -3
  %switch.selectcmp.i = icmp eq i32 %switch.and.i, 0
  br i1 %switch.selectcmp.i, label %15, label %17

15:                                               ; preds = %12
  %16 = tail call noundef zeroext i1 @_ZN10VectorNode26is_vector_rotate_supportedEij9BasicType(i32 noundef %13, i32 noundef %1, i8 noundef zeroext %2)
  br label %_ZN10VectorNode35is_vector_integral_negate_supportedEij9BasicTypeb.exit

17:                                               ; preds = %12
  %18 = add i32 %13, -393
  %19 = icmp ult i32 %18, 2
  br i1 %19, label %20, label %30

20:                                               ; preds = %17
  %21 = tail call noundef zeroext i1 @_ZN7Matcher27match_rule_supported_vectorEii9BasicType(i32 noundef %13, i32 noundef %1, i8 noundef zeroext %2) #8
  br i1 %21, label %_ZN10VectorNode35is_vector_integral_negate_supportedEij9BasicTypeb.exit, label %22

22:                                               ; preds = %20
  %23 = icmp eq i8 %2, 11
  %24 = select i1 %23, i32 343, i32 342
  %25 = tail call noundef i32 @_ZN10VectorNode6opcodeEi9BasicType(i32 noundef %24, i8 noundef zeroext %2)
  %26 = tail call noundef zeroext i1 @_ZN7Matcher27match_rule_supported_vectorEii9BasicType(i32 noundef %25, i32 noundef %1, i8 noundef zeroext %2) #8
  br i1 %26, label %27, label %29

27:                                               ; preds = %22
  %28 = tail call noundef zeroext i1 @_ZN7Matcher27match_rule_supported_vectorEii9BasicType(i32 noundef 452, i32 noundef %1, i8 noundef zeroext %2) #8
  br i1 %28, label %_ZN10VectorNode35is_vector_integral_negate_supportedEij9BasicTypeb.exit, label %29

29:                                               ; preds = %27, %22
  br label %_ZN10VectorNode35is_vector_integral_negate_supportedEij9BasicTypeb.exit

30:                                               ; preds = %17
  %31 = icmp sgt i32 %13, 0
  br i1 %31, label %32, label %_ZN10VectorNode35is_vector_integral_negate_supportedEij9BasicTypeb.exit

32:                                               ; preds = %30
  %33 = tail call noundef zeroext i1 @_ZN7Matcher39match_rule_supported_auto_vectorizationEii9BasicType(i32 noundef %13, i32 noundef %1, i8 noundef zeroext %2) #8
  br label %_ZN10VectorNode35is_vector_integral_negate_supportedEij9BasicTypeb.exit

_ZN10VectorNode35is_vector_integral_negate_supportedEij9BasicTypeb.exit: ; preds = %9, %29, %27, %20, %3, %_ZN10VectorNode40vector_size_supported_auto_vectorizationE9BasicTypei.exit, %30, %32, %15
  %.0 = phi i1 [ %16, %15 ], [ false, %30 ], [ %33, %32 ], [ false, %_ZN10VectorNode40vector_size_supported_auto_vectorizationE9BasicTypei.exit ], [ false, %3 ], [ false, %29 ], [ true, %20 ], [ true, %27 ], [ false, %9 ]
  ret i1 %.0
}